target datalayout = "e-m:e-p270:32:32-p271:32:32-p272:64:64-i64:64-i128:128-f80:128-n8:16:32:64-S128"
target triple = "x86_64-pc-linux-gnu"

%"class.Ipopt::PardisoMKLSolverInterface" = type <{ %"class.Ipopt::SparseSymLinearSolverInterface.base", [3 x i8], i32, i32, [4 x i8], ptr, i32, i32, i8, i8, i8, i8, i8, [3 x i8], ptr, i32, i32, i32, [4 x i8], ptr, ptr, i32, i32, i32, [4 x i8] }>
%"class.Ipopt::SparseSymLinearSolverInterface.base" = type { %"class.Ipopt::AlgorithmStrategyObject.base" }
%"class.Ipopt::AlgorithmStrategyObject.base" = type <{ %"class.Ipopt::ReferencedObject.base", [4 x i8], %"class.Ipopt::SmartPtr", %"class.Ipopt::SmartPtr.0", %"class.Ipopt::SmartPtr.1", %"class.Ipopt::SmartPtr.2", i8 }>
%"class.Ipopt::ReferencedObject.base" = type <{ ptr, i32 }>
%"class.Ipopt::SmartPtr" = type { ptr }
%"class.Ipopt::SmartPtr.0" = type { ptr }
%"class.Ipopt::SmartPtr.1" = type { ptr }
%"class.Ipopt::SmartPtr.2" = type { ptr }

; Function Attrs: mustprogress nounwind uwtable
define noundef i32 @_ZN5Ipopt25PardisoMKLSolverInterface21SymbolicFactorizationEPKiS2_(ptr noundef nonnull align 8 dereferenceable(140) %0, ptr noundef %1, ptr noundef %2) #6 align 2 {
  %4 = alloca ptr, align 8
  %5 = alloca ptr, align 8
  %6 = alloca ptr, align 8
  store ptr %0, ptr %4, align 8
  store ptr %1, ptr %5, align 8
  store ptr %2, ptr %6, align 8
  %7 = load ptr, ptr %4, align 8
  %8 = getelementptr inbounds %"class.Ipopt::PardisoMKLSolverInterface", ptr %7, i32 0, i32 8
  store i8 0, ptr %8, align 8
  ret i32 0
}

; Function Attrs: mustprogress uwtable
define noundef i32 @_ZN5Ipopt25PardisoMKLSolverInterface19InitializeStructureEiiPKiS2_(ptr noundef nonnull align 8 dereferenceable(140) %0, i32 noundef %1, i32 noundef %2, ptr noundef %3, ptr noundef %4) unnamed_addr #4 align 2 {
  %6 = alloca i32, align 4
  %7 = alloca ptr, align 8
  %8 = alloca i32, align 4
  %9 = alloca i32, align 4
  %10 = alloca ptr, align 8
  %11 = alloca ptr, align 8
  %12 = alloca i32, align 4
  store ptr %0, ptr %7, align 8
  store i32 %1, ptr %8, align 4
  store i32 %2, ptr %9, align 4
  store ptr %3, ptr %10, align 8
  store ptr %4, ptr %11, align 8
  %13 = load ptr, ptr %7, align 8
  %14 = load i32, ptr %8, align 4
  %15 = getelementptr inbounds %"class.Ipopt::PardisoMKLSolverInterface", ptr %13, i32 0, i32 2
  store i32 %14, ptr %15, align 4
  %16 = load i32, ptr %9, align 4
  %17 = getelementptr inbounds %"class.Ipopt::PardisoMKLSolverInterface", ptr %13, i32 0, i32 3
  store i32 %16, ptr %17, align 8
  %18 = getelementptr inbounds %"class.Ipopt::PardisoMKLSolverInterface", ptr %13, i32 0, i32 5
  %19 = load ptr, ptr %18, align 8
  %20 = icmp eq ptr %19, null
  br i1 %20, label %22, label %21

21:                                               ; preds = %5
  call void @_ZdaPv(ptr noundef %19) #14
  br label %22

22:                                               ; preds = %21, %5
  %23 = getelementptr inbounds %"class.Ipopt::PardisoMKLSolverInterface", ptr %13, i32 0, i32 5
  store ptr null, ptr %23, align 8
  %24 = getelementptr inbounds %"class.Ipopt::PardisoMKLSolverInterface", ptr %13, i32 0, i32 3
  %25 = load i32, ptr %24, align 8
  %26 = sext i32 %25 to i64
  %27 = call { i64, i1 } @llvm.umul.with.overflow.i64(i64 %26, i64 8)
  %28 = extractvalue { i64, i1 } %27, 1
  %29 = extractvalue { i64, i1 } %27, 0
  %30 = select i1 %28, i64 -1, i64 %29
  %31 = call noalias noundef nonnull ptr @_Znam(i64 noundef %30) #13
  %32 = getelementptr inbounds %"class.Ipopt::PardisoMKLSolverInterface", ptr %13, i32 0, i32 5
  store ptr %31, ptr %32, align 8
  %33 = load ptr, ptr %10, align 8
  %34 = load ptr, ptr %11, align 8
  %35 = call noundef i32 @_ZN5Ipopt25PardisoMKLSolverInterface21SymbolicFactorizationEPKiS2_(ptr noundef nonnull align 8 dereferenceable(140) %13, ptr noundef %33, ptr noundef %34)
  store i32 %35, ptr %12, align 4
  %36 = load i32, ptr %12, align 4
  %37 = icmp ne i32 %36, 0
  br i1 %37, label %38, label %40

38:                                               ; preds = %22
  %39 = load i32, ptr %12, align 4
  store i32 %39, ptr %6, align 4
  br label %43

40:                                               ; preds = %22
  %41 = getelementptr inbounds %"class.Ipopt::PardisoMKLSolverInterface", ptr %13, i32 0, i32 12
  store i8 1, ptr %41, align 4
  %42 = load i32, ptr %12, align 4
  store i32 %42, ptr %6, align 4
  br label %43

43:                                               ; preds = %40, %38
  %44 = load i32, ptr %6, align 4
  ret i32 %44
}