; Function Attrs: mustprogress uwtable
define noundef i32 @_ZN5Ipopt25PardisoMKLSolverInterface19InitializeStructureEiiPKiS2_(ptr nocapture noundef nonnull align 8 dereferenceable(140) %0, i32 noundef %1, i32 noundef %2, ptr nocapture readnone %3, ptr nocapture readnone %4) unnamed_addr #3 align 2 {
  %6 = getelementptr inbounds i8, ptr %0, i64 52
  store i32 %1, ptr %6, align 4
  %7 = getelementptr inbounds i8, ptr %0, i64 56
  store i32 %2, ptr %7, align 8
  %8 = getelementptr inbounds i8, ptr %0, i64 64
  %9 = load ptr, ptr %8, align 8
  %10 = icmp eq ptr %9, null
  br i1 %10, label %12, label %11

11:                                               ; preds = %5
  tail call void @_ZdaPv(ptr noundef nonnull %9) #23
  %.pre = load i32, ptr %7, align 8
  br label %12

12:                                               ; preds = %11, %5
  %13 = phi i32 [ %.pre, %11 ], [ %2, %5 ]
  store ptr null, ptr %8, align 8
  %14 = sext i32 %13 to i64
  %15 = icmp slt i32 %13, 0
  %16 = shl nsw i64 %14, 3
  %17 = select i1 %15, i64 -1, i64 %16
  %18 = tail call noalias noundef nonnull ptr @_Znam(i64 noundef %17) #21
  store ptr %18, ptr %8, align 8
  %19 = getelementptr inbounds i8, ptr %0, i64 80
  store i8 0, ptr %19, align 8
  %20 = getelementptr inbounds i8, ptr %0, i64 84
  store i8 1, ptr %20, align 4
  ret i32 0
}